A51 MACRO ASSEMBLER  RSA_1                                                                02/12/2023 12:13:07 PAGE     1


MACRO ASSEMBLER A51 V8.2.7.0
OBJECT MODULE PLACED IN .\Objects\rsa_1.obj
ASSEMBLER INVOKED BY: C:\Keil_v5\C51\BIN\A51.EXE rsa_1.a51 SET(SMALL) DEBUG PRINT(.\Listings\rsa_1.lst) OBJECT(.\Objects
                      \rsa_1.obj) EP

LOC  OBJ            LINE     SOURCE

0000                   1     ORG 0H
0000 020100            2     LJMP MAIN
0100                   3     ORG 100H
0100                   4     MAIN:
0100 314F              5     CALL INPUT
0102 315D              6     CALL LOOP
0104 3188              7     CALL LED_DISP
0106 80FE              8     HERE: SJMP HERE
0130                   9     ORG 130H
                      10     
0130                  11     DELAY:
0130 C000             12     PUSH 00H
0132 78FA             13     MOV R0, #250
0134 313B             14     h3: ACALL delay_1ms
0136 D8FC             15         DJNZ R0, h3
0138 D000             16     POP 00H
013A 22               17     RET
                      18             
013B C000             19     delay_1ms: PUSH 00H
013D 7804             20                        MOV R0, #4
013F 3146             21                        h2: ACALL delay_250us
0141 D8FC             22                        DJNZ R0, h2
0143 D000             23                        POP 00H
0145 22               24                        RET
                      25             
0146 C000             26     delay_250us: PUSH 00H
0148 78F4             27                      MOV R0, #244
014A D8FE             28                      h1: DJNZ R0, h1
014C D000             29                      POP 00H
014E 22               30                      RET
                      31     
014F                  32     INPUT:
014F 7570D8           33     MOV 70H, #0D8H    
0152 7571AD           34     MOV 71H, #0ADH    
0155 757205           35     MOV 72H, #05H
0158 7801             36     MOV R0, #01H      
015A 7901             37     MOV R1, #01H      
015C 22               38     RET
                      39     
015D E570             40     LOOP: MOV A, 70H
015F 88F0             41           MOV B, R0
0161 A4               42           MUL AB
0162 AAF0             43               MOV R2, B    
0164 FB               44               MOV R3, A    
                      45           ;ACALL MODULO 
0165 3188             46           ACALL LED_DISP      
                      47        
0167 E9               48     MODULO: MOV A, R1     
0168 8571F0           49             MOV B, 71H    
016B A4               50                 MUL AB
016C FC               51                     MOV R4, A     
016D EB               52                     MOV A, R3     
016E 9C               53                     SUBB A, R4    
016F FD               54                     MOV R5, A     
0170 ACF0             55                     MOV R4, B     
0172 EA               56                     MOV A, R2     
0173 9C               57                 SUBB A, R4    
A51 MACRO ASSEMBLER  RSA_1                                                                02/12/2023 12:13:07 PAGE     2

0174 FC               58                     MOV R4, A     
0175 5003             59                 JNC check
0177 08               60             INC R0
0178 315D             61                     ACALL LOOP
                      62              
017A BD0007           63     check: CJNE R5, #00H, next       
017D BC0104           64            CJNE R4, #01H, next
0180 8972             65                MOV 72H, R1
0182 3188             66                ACALL LED_DISP
                      67     
0184 09               68     next: INC R1
0185 C3               69           CLR C
0186 80DF             70               SJMP MODULO
                      71               
0188                  72     LED_DISP: 
0188 8572F0           73     MOV B, 72H
018B 53F010           74     ANL B, #10H
018E 85F090           75     MOV P1, B
0191 31AA             76     ACALL delay_5s
0193 759000           77     MOV P1, #00H
0196 31B5             78     ACALL delay_1s
0198 8572F0           79     MOV B, 72H
019B 53F001           80     ANL B, #01H
019E 85F090           81     MOV P1, B
01A1 31AA             82     ACALL delay_5s
01A3 759000           83     MOV P1, #00H
01A6 31B5             84     ACALL delay_1s
01A8 3188             85     ACALL LED_DISP
                      86     
01AA                  87     delay_5s: 
01AA C000             88     PUSH 00H
01AC 7814             89     MOV R0, #20
01AE 3130             90     h4: ACALL DELAY
01B0 D8FC             91         DJNZ R0, h4
01B2 D000             92     POP 00H
01B4 22               93     RET
                      94     
01B5                  95     delay_1s:
01B5 C000             96     PUSH 00H
01B7 7804             97     MOV R0, #4
01B9 3130             98     h5: ACALL DELAY
01BB D8FC             99         DJNZ R0, h5
01BD D000            100     POP 00H
01BF 22              101     RET
                     102     
                     103     END
A51 MACRO ASSEMBLER  RSA_1                                                                02/12/2023 12:13:07 PAGE     3

SYMBOL TABLE LISTING
------ ----- -------


N A M E             T Y P E  V A L U E   ATTRIBUTES

B. . . . . . . . .  D ADDR   00F0H   A   
CHECK. . . . . . .  C ADDR   017AH   A   
DELAY. . . . . . .  C ADDR   0130H   A   
DELAY_1MS. . . . .  C ADDR   013BH   A   
DELAY_1S . . . . .  C ADDR   01B5H   A   
DELAY_250US. . . .  C ADDR   0146H   A   
DELAY_5S . . . . .  C ADDR   01AAH   A   
H1 . . . . . . . .  C ADDR   014AH   A   
H2 . . . . . . . .  C ADDR   013FH   A   
H3 . . . . . . . .  C ADDR   0134H   A   
H4 . . . . . . . .  C ADDR   01AEH   A   
H5 . . . . . . . .  C ADDR   01B9H   A   
HERE . . . . . . .  C ADDR   0106H   A   
INPUT. . . . . . .  C ADDR   014FH   A   
LED_DISP . . . . .  C ADDR   0188H   A   
LOOP . . . . . . .  C ADDR   015DH   A   
MAIN . . . . . . .  C ADDR   0100H   A   
MODULO . . . . . .  C ADDR   0167H   A   
NEXT . . . . . . .  C ADDR   0184H   A   
P1 . . . . . . . .  D ADDR   0090H   A   


REGISTER BANK(S) USED: 0 


ASSEMBLY COMPLETE.  0 WARNING(S), 0 ERROR(S)
